target datalayout = "e-m:e-p270:32:32-p271:32:32-p272:64:64-i64:64-i128:128-f80:128-n8:16:32:64-S128"
target triple = "x86_64-pc-linux-gnu"

%class.QToolBar = type { %class.QWidget }
%class.QWidget = type { %class.QObject, %class.QPaintDevice, ptr }
%class.QObject = type { ptr, %class.QScopedPointer }
%class.QScopedPointer = type { ptr }
%class.QPaintDevice = type { ptr, i16, ptr }
%class.QString = type { ptr }
%class.MLRenderingOnOffToolbar = type { %class.QToolBar, i32, ptr, ptr, ptr }

@.str.38 = private unnamed_addr constant [3 x i8] c"On\00", align 1

; Function Attrs: mustprogress uwtable
define linkonce_odr void @_ZN7QStringC2EPKc(ptr noundef nonnull align 8 dereferenceable(8) %0, ptr noundef %1) unnamed_addr #5 comdat align 2 {
  %3 = alloca ptr, align 8
  %4 = alloca ptr, align 8
  store ptr %0, ptr %3, align 8
  store ptr %1, ptr %4, align 8
  %5 = load ptr, ptr %3, align 8
  %6 = getelementptr inbounds %class.QString, ptr %5, i32 0, i32 0
  %7 = load ptr, ptr %4, align 8
  %8 = load ptr, ptr %4, align 8
  %9 = icmp ne ptr %8, null
  br i1 %9, label %10, label %14

10:                                               ; preds = %2
  %11 = load ptr, ptr %4, align 8
  %12 = call i64 @strlen(ptr noundef %11) #19
  %13 = trunc i64 %12 to i32
  br label %15

14:                                               ; preds = %2
  br label %15

15:                                               ; preds = %14, %10
  %16 = phi i32 [ %13, %10 ], [ -1, %14 ]
  %17 = call noundef ptr @_ZN7QString16fromAscii_helperEPKci(ptr noundef %7, i32 noundef %16)
  store ptr %17, ptr %6, align 8
  ret void
}

; Function Attrs: mustprogress uwtable
define void @_ZN23MLRenderingOnOffToolbar6toggleEP7QAction(ptr noundef nonnull align 8 dereferenceable(80) %0, ptr noundef %1) #5 align 2 personality ptr @__gxx_personality_v0 {
  %3 = alloca ptr, align 8
  %4 = alloca ptr, align 8
  %5 = alloca %class.QString, align 8
  %6 = alloca %class.QString, align 8
  %7 = alloca ptr, align 8
  %8 = alloca i32, align 4
  %9 = alloca %class.QString, align 8
  %10 = alloca %class.QString, align 8
  store ptr %0, ptr %3, align 8
  store ptr %1, ptr %4, align 8
  %11 = load ptr, ptr %3, align 8
  %12 = getelementptr inbounds %class.MLRenderingOnOffToolbar, ptr %11, i32 0, i32 2
  %13 = load ptr, ptr %12, align 8
  %14 = icmp ne ptr %13, null
  br i1 %14, label %15, label %66

15:                                               ; preds = %2
  %16 = load ptr, ptr %4, align 8
  %17 = icmp ne ptr %16, null
  br i1 %17, label %18, label %66

18:                                               ; preds = %15
  %19 = getelementptr inbounds %class.MLRenderingOnOffToolbar, ptr %11, i32 0, i32 1
  %20 = load i32, ptr %19, align 8
  %21 = icmp ne i32 %20, -1
  br i1 %21, label %22, label %32

22:                                               ; preds = %18
  %23 = getelementptr inbounds %class.MLRenderingOnOffToolbar, ptr %11, i32 0, i32 2
  %24 = load ptr, ptr %23, align 8
  %25 = getelementptr inbounds %class.MLRenderingOnOffToolbar, ptr %11, i32 0, i32 3
  %26 = load ptr, ptr %25, align 8
  %27 = call noundef zeroext i1 @_ZNK7QAction9isCheckedEv(ptr noundef nonnull align 8 dereferenceable(16) %26)
  call void @_ZN7QAction10setCheckedEb(ptr noundef nonnull align 8 dereferenceable(16) %24, i1 noundef zeroext %27)
  %28 = getelementptr inbounds %class.MLRenderingOnOffToolbar, ptr %11, i32 0, i32 1
  %29 = load i32, ptr %28, align 8
  %30 = getelementptr inbounds %class.MLRenderingOnOffToolbar, ptr %11, i32 0, i32 2
  %31 = load ptr, ptr %30, align 8
  call void @_ZN23MLRenderingOnOffToolbar36updateRenderingDataAccordingToActionEiP17MLRenderingAction(ptr noundef nonnull align 8 dereferenceable(80) %11, i32 noundef %29, ptr noundef %31)
  br label %65

32:                                               ; preds = %18
  %33 = getelementptr inbounds %class.MLRenderingOnOffToolbar, ptr %11, i32 0, i32 2
  %34 = load ptr, ptr %33, align 8
  %35 = load ptr, ptr %4, align 8
  call void @_ZNK7QAction4textEv(ptr dead_on_unwind writable sret(%class.QString) align 8 %5, ptr noundef nonnull align 8 dereferenceable(16) %35)
  invoke void @_ZN7QStringC2EPKc(ptr noundef nonnull align 8 dereferenceable(8) %6, ptr noundef @.str.38)
          to label %36 unwind label %47

36:                                               ; preds = %32
  %37 = call noundef zeroext i1 @_ZeqRK7QStringS1_(ptr noundef nonnull align 8 dereferenceable(8) %5, ptr noundef nonnull align 8 dereferenceable(8) %6) #3
  invoke void @_ZN7QAction10setCheckedEb(ptr noundef nonnull align 8 dereferenceable(16) %34, i1 noundef zeroext %37)
          to label %38 unwind label %51

38:                                               ; preds = %36
  call void @_ZN7QStringD2Ev(ptr noundef nonnull align 8 dereferenceable(8) %6) #3
  call void @_ZN7QStringD2Ev(ptr noundef nonnull align 8 dereferenceable(8) %5) #3
  %39 = getelementptr inbounds %class.MLRenderingOnOffToolbar, ptr %11, i32 0, i32 1
  %40 = load i32, ptr %39, align 8
  %41 = getelementptr inbounds %class.MLRenderingOnOffToolbar, ptr %11, i32 0, i32 2
  %42 = load ptr, ptr %41, align 8
  %43 = load ptr, ptr %4, align 8
  call void @_ZNK7QAction4textEv(ptr dead_on_unwind writable sret(%class.QString) align 8 %9, ptr noundef nonnull align 8 dereferenceable(16) %43)
  invoke void @_ZN7QStringC2EPKc(ptr noundef nonnull align 8 dereferenceable(8) %10, ptr noundef @.str.38)
          to label %44 unwind label %56

44:                                               ; preds = %38
  %45 = call noundef zeroext i1 @_ZeqRK7QStringS1_(ptr noundef nonnull align 8 dereferenceable(8) %9, ptr noundef nonnull align 8 dereferenceable(8) %10) #3
  invoke void @_ZN23MLRenderingOnOffToolbar36updateRenderingDataAccordingToActionEiP17MLRenderingActionb(ptr noundef nonnull align 8 dereferenceable(80) %11, i32 noundef %40, ptr noundef %42, i1 noundef zeroext %45)
          to label %46 unwind label %60

46:                                               ; preds = %44
  call void @_ZN7QStringD2Ev(ptr noundef nonnull align 8 dereferenceable(8) %10) #3
  call void @_ZN7QStringD2Ev(ptr noundef nonnull align 8 dereferenceable(8) %9) #3
  br label %65

47:                                               ; preds = %32
  %48 = landingpad { ptr, i32 }
          cleanup
  %49 = extractvalue { ptr, i32 } %48, 0
  store ptr %49, ptr %7, align 8
  %50 = extractvalue { ptr, i32 } %48, 1
  store i32 %50, ptr %8, align 4
  br label %55

51:                                               ; preds = %36
  %52 = landingpad { ptr, i32 }
          cleanup
  %53 = extractvalue { ptr, i32 } %52, 0
  store ptr %53, ptr %7, align 8
  %54 = extractvalue { ptr, i32 } %52, 1
  store i32 %54, ptr %8, align 4
  call void @_ZN7QStringD2Ev(ptr noundef nonnull align 8 dereferenceable(8) %6) #3
  br label %55

55:                                               ; preds = %51, %47
  call void @_ZN7QStringD2Ev(ptr noundef nonnull align 8 dereferenceable(8) %5) #3
  br label %67

56:                                               ; preds = %38
  %57 = landingpad { ptr, i32 }
          cleanup
  %58 = extractvalue { ptr, i32 } %57, 0
  store ptr %58, ptr %7, align 8
  %59 = extractvalue { ptr, i32 } %57, 1
  store i32 %59, ptr %8, align 4
  br label %64

60:                                               ; preds = %44
  %61 = landingpad { ptr, i32 }
          cleanup
  %62 = extractvalue { ptr, i32 } %61, 0
  store ptr %62, ptr %7, align 8
  %63 = extractvalue { ptr, i32 } %61, 1
  store i32 %63, ptr %8, align 4
  call void @_ZN7QStringD2Ev(ptr noundef nonnull align 8 dereferenceable(8) %10) #3
  br label %64

64:                                               ; preds = %60, %56
  call void @_ZN7QStringD2Ev(ptr noundef nonnull align 8 dereferenceable(8) %9) #3
  br label %67

65:                                               ; preds = %46, %22
  br label %66

66:                                               ; preds = %65, %15, %2
  ret void

67:                                               ; preds = %64, %55
  %68 = load ptr, ptr %7, align 8
  %69 = load i32, ptr %8, align 4
  %70 = insertvalue { ptr, i32 } poison, ptr %68, 0
  %71 = insertvalue { ptr, i32 } %70, i32 %69, 1
  resume { ptr, i32 } %71
}