; Function Attrs: mustprogress uwtable
define void @_ZN23MLRenderingOnOffToolbar6toggleEP7QAction(ptr noundef nonnull align 8 dereferenceable(80) %0, ptr noundef %1) local_unnamed_addr #3 align 2 personality ptr @__gxx_personality_v0 {
  %3 = alloca %class.QString, align 8
  %4 = alloca %class.QString, align 8
  %5 = alloca %class.QString, align 8
  %6 = alloca %class.QString, align 8
  %7 = getelementptr inbounds i8, ptr %0, i64 56
  %8 = load ptr, ptr %7, align 8
  %9 = icmp ne ptr %8, null
  %10 = icmp ne ptr %1, null
  %or.cond = and i1 %10, %9
  br i1 %or.cond, label %11, label %_ZN7QStringD2Ev.exit33

11:                                               ; preds = %2
  %12 = getelementptr inbounds i8, ptr %0, i64 48
  %13 = load i32, ptr %12, align 8
  %.not = icmp eq i32 %13, -1
  br i1 %.not, label %20, label %14

14:                                               ; preds = %11
  %15 = getelementptr inbounds i8, ptr %0, i64 64
  %16 = load ptr, ptr %15, align 8
  %17 = tail call noundef zeroext i1 @_ZNK7QAction9isCheckedEv(ptr noundef nonnull align 8 dereferenceable(16) %16)
  tail call void @_ZN7QAction10setCheckedEb(ptr noundef nonnull align 8 dereferenceable(16) %8, i1 noundef zeroext %17)
  %18 = load i32, ptr %12, align 8
  %19 = load ptr, ptr %7, align 8
  tail call void @_ZN23MLRenderingOnOffToolbar36updateRenderingDataAccordingToActionEiP17MLRenderingAction(ptr noundef nonnull align 8 dereferenceable(80) %0, i32 noundef %18, ptr noundef %19)
  br label %_ZN7QStringD2Ev.exit33

20:                                               ; preds = %11
  call void @_ZNK7QAction4textEv(ptr dead_on_unwind nonnull writable sret(%class.QString) align 8 %3, ptr noundef nonnull align 8 dereferenceable(16) %1)
  %21 = invoke noundef ptr @_ZN7QString16fromAscii_helperEPKci(ptr noundef nonnull @.str.38, i32 noundef 2)
          to label %22 unwind label %47

22:                                               ; preds = %20
  store ptr %21, ptr %4, align 8
  %23 = call noundef zeroext i1 @_ZeqRK7QStringS1_(ptr noundef nonnull align 8 dereferenceable(8) %3, ptr noundef nonnull align 8 dereferenceable(8) %4) #23
  invoke void @_ZN7QAction10setCheckedEb(ptr noundef nonnull align 8 dereferenceable(16) %8, i1 noundef zeroext %23)
          to label %24 unwind label %49

24:                                               ; preds = %22
  %25 = load ptr, ptr %4, align 8
  %26 = load atomic i32, ptr %25 monotonic, align 4
  switch i32 %26, label %_ZN9QtPrivate8RefCount5derefEv.exit.i [
    i32 0, label %_ZN9QtPrivate8RefCount5derefEv.exit.thread2.i
    i32 -1, label %_ZN7QStringD2Ev.exit
  ]

_ZN9QtPrivate8RefCount5derefEv.exit.i:            ; preds = %24
  %27 = atomicrmw sub ptr %25, i32 1 seq_cst, align 4
  %.not.i = icmp eq i32 %27, 1
  br i1 %.not.i, label %_ZN9QtPrivate8RefCount5derefEv.exit._ZN9QtPrivate8RefCount5derefEv.exit.thread2_crit_edge.i, label %_ZN7QStringD2Ev.exit

_ZN9QtPrivate8RefCount5derefEv.exit._ZN9QtPrivate8RefCount5derefEv.exit.thread2_crit_edge.i: ; preds = %_ZN9QtPrivate8RefCount5derefEv.exit.i
  %.pre.i = load ptr, ptr %4, align 8
  br label %_ZN9QtPrivate8RefCount5derefEv.exit.thread2.i

_ZN9QtPrivate8RefCount5derefEv.exit.thread2.i:    ; preds = %_ZN9QtPrivate8RefCount5derefEv.exit._ZN9QtPrivate8RefCount5derefEv.exit.thread2_crit_edge.i, %24
  %28 = phi ptr [ %.pre.i, %_ZN9QtPrivate8RefCount5derefEv.exit._ZN9QtPrivate8RefCount5derefEv.exit.thread2_crit_edge.i ], [ %25, %24 ]
  call void @_ZN10QArrayData10deallocateEPS_mm(ptr noundef %28, i64 noundef 2, i64 noundef 8) #23
  br label %_ZN7QStringD2Ev.exit

_ZN7QStringD2Ev.exit:                             ; preds = %24, %_ZN9QtPrivate8RefCount5derefEv.exit.i, %_ZN9QtPrivate8RefCount5derefEv.exit.thread2.i
  %29 = load ptr, ptr %3, align 8
  %30 = load atomic i32, ptr %29 monotonic, align 4
  switch i32 %30, label %_ZN9QtPrivate8RefCount5derefEv.exit.i16 [
    i32 0, label %_ZN9QtPrivate8RefCount5derefEv.exit.thread2.i15
    i32 -1, label %_ZN7QStringD2Ev.exit20
  ]

_ZN9QtPrivate8RefCount5derefEv.exit.i16:          ; preds = %_ZN7QStringD2Ev.exit
  %31 = atomicrmw sub ptr %29, i32 1 seq_cst, align 4
  %.not.i17 = icmp eq i32 %31, 1
  br i1 %.not.i17, label %_ZN9QtPrivate8RefCount5derefEv.exit._ZN9QtPrivate8RefCount5derefEv.exit.thread2_crit_edge.i18, label %_ZN7QStringD2Ev.exit20

_ZN9QtPrivate8RefCount5derefEv.exit._ZN9QtPrivate8RefCount5derefEv.exit.thread2_crit_edge.i18: ; preds = %_ZN9QtPrivate8RefCount5derefEv.exit.i16
  %.pre.i19 = load ptr, ptr %3, align 8
  br label %_ZN9QtPrivate8RefCount5derefEv.exit.thread2.i15

_ZN9QtPrivate8RefCount5derefEv.exit.thread2.i15:  ; preds = %_ZN9QtPrivate8RefCount5derefEv.exit._ZN9QtPrivate8RefCount5derefEv.exit.thread2_crit_edge.i18, %_ZN7QStringD2Ev.exit
  %32 = phi ptr [ %.pre.i19, %_ZN9QtPrivate8RefCount5derefEv.exit._ZN9QtPrivate8RefCount5derefEv.exit.thread2_crit_edge.i18 ], [ %29, %_ZN7QStringD2Ev.exit ]
  call void @_ZN10QArrayData10deallocateEPS_mm(ptr noundef %32, i64 noundef 2, i64 noundef 8) #23
  br label %_ZN7QStringD2Ev.exit20

_ZN7QStringD2Ev.exit20:                           ; preds = %_ZN7QStringD2Ev.exit, %_ZN9QtPrivate8RefCount5derefEv.exit.i16, %_ZN9QtPrivate8RefCount5derefEv.exit.thread2.i15
  %33 = load i32, ptr %12, align 8
  %34 = load ptr, ptr %7, align 8
  call void @_ZNK7QAction4textEv(ptr dead_on_unwind nonnull writable sret(%class.QString) align 8 %5, ptr noundef nonnull align 8 dereferenceable(16) %1)
  %35 = invoke noundef ptr @_ZN7QString16fromAscii_helperEPKci(ptr noundef nonnull @.str.38, i32 noundef 2)
          to label %36 unwind label %51

36:                                               ; preds = %_ZN7QStringD2Ev.exit20
  store ptr %35, ptr %6, align 8
  %37 = call noundef zeroext i1 @_ZeqRK7QStringS1_(ptr noundef nonnull align 8 dereferenceable(8) %5, ptr noundef nonnull align 8 dereferenceable(8) %6) #23
  invoke void @_ZN23MLRenderingOnOffToolbar36updateRenderingDataAccordingToActionEiP17MLRenderingActionb(ptr noundef nonnull align 8 dereferenceable(80) %0, i32 noundef %33, ptr noundef %34, i1 noundef zeroext %37)
          to label %38 unwind label %53

38:                                               ; preds = %36
  %39 = load ptr, ptr %6, align 8
  %40 = load atomic i32, ptr %39 monotonic, align 4
  switch i32 %40, label %_ZN9QtPrivate8RefCount5derefEv.exit.i23 [
    i32 0, label %_ZN9QtPrivate8RefCount5derefEv.exit.thread2.i22
    i32 -1, label %_ZN7QStringD2Ev.exit27
  ]

_ZN9QtPrivate8RefCount5derefEv.exit.i23:          ; preds = %38
  %41 = atomicrmw sub ptr %39, i32 1 seq_cst, align 4
  %.not.i24 = icmp eq i32 %41, 1
  br i1 %.not.i24, label %_ZN9QtPrivate8RefCount5derefEv.exit._ZN9QtPrivate8RefCount5derefEv.exit.thread2_crit_edge.i25, label %_ZN7QStringD2Ev.exit27

_ZN9QtPrivate8RefCount5derefEv.exit._ZN9QtPrivate8RefCount5derefEv.exit.thread2_crit_edge.i25: ; preds = %_ZN9QtPrivate8RefCount5derefEv.exit.i23
  %.pre.i26 = load ptr, ptr %6, align 8
  br label %_ZN9QtPrivate8RefCount5derefEv.exit.thread2.i22

_ZN9QtPrivate8RefCount5derefEv.exit.thread2.i22:  ; preds = %_ZN9QtPrivate8RefCount5derefEv.exit._ZN9QtPrivate8RefCount5derefEv.exit.thread2_crit_edge.i25, %38
  %42 = phi ptr [ %.pre.i26, %_ZN9QtPrivate8RefCount5derefEv.exit._ZN9QtPrivate8RefCount5derefEv.exit.thread2_crit_edge.i25 ], [ %39, %38 ]
  call void @_ZN10QArrayData10deallocateEPS_mm(ptr noundef %42, i64 noundef 2, i64 noundef 8) #23
  br label %_ZN7QStringD2Ev.exit27

_ZN7QStringD2Ev.exit27:                           ; preds = %38, %_ZN9QtPrivate8RefCount5derefEv.exit.i23, %_ZN9QtPrivate8RefCount5derefEv.exit.thread2.i22
  %43 = load ptr, ptr %5, align 8
  %44 = load atomic i32, ptr %43 monotonic, align 4
  switch i32 %44, label %_ZN9QtPrivate8RefCount5derefEv.exit.i29 [
    i32 0, label %_ZN9QtPrivate8RefCount5derefEv.exit.thread2.i28
    i32 -1, label %_ZN7QStringD2Ev.exit33
  ]

_ZN9QtPrivate8RefCount5derefEv.exit.i29:          ; preds = %_ZN7QStringD2Ev.exit27
  %45 = atomicrmw sub ptr %43, i32 1 seq_cst, align 4
  %.not.i30 = icmp eq i32 %45, 1
  br i1 %.not.i30, label %_ZN9QtPrivate8RefCount5derefEv.exit._ZN9QtPrivate8RefCount5derefEv.exit.thread2_crit_edge.i31, label %_ZN7QStringD2Ev.exit33

_ZN9QtPrivate8RefCount5derefEv.exit._ZN9QtPrivate8RefCount5derefEv.exit.thread2_crit_edge.i31: ; preds = %_ZN9QtPrivate8RefCount5derefEv.exit.i29
  %.pre.i32 = load ptr, ptr %5, align 8
  br label %_ZN9QtPrivate8RefCount5derefEv.exit.thread2.i28

_ZN9QtPrivate8RefCount5derefEv.exit.thread2.i28:  ; preds = %_ZN9QtPrivate8RefCount5derefEv.exit._ZN9QtPrivate8RefCount5derefEv.exit.thread2_crit_edge.i31, %_ZN7QStringD2Ev.exit27
  %46 = phi ptr [ %.pre.i32, %_ZN9QtPrivate8RefCount5derefEv.exit._ZN9QtPrivate8RefCount5derefEv.exit.thread2_crit_edge.i31 ], [ %43, %_ZN7QStringD2Ev.exit27 ]
  call void @_ZN10QArrayData10deallocateEPS_mm(ptr noundef %46, i64 noundef 2, i64 noundef 8) #23
  br label %_ZN7QStringD2Ev.exit33

47:                                               ; preds = %20
  %48 = landingpad { ptr, i32 }
          cleanup
  br label %55

49:                                               ; preds = %22
  %50 = landingpad { ptr, i32 }
          cleanup
  call void @_ZN7QStringD2Ev(ptr noundef nonnull align 8 dereferenceable(8) %4) #23
  br label %55

51:                                               ; preds = %_ZN7QStringD2Ev.exit20
  %52 = landingpad { ptr, i32 }
          cleanup
  br label %55

53:                                               ; preds = %36
  %54 = landingpad { ptr, i32 }
          cleanup
  call void @_ZN7QStringD2Ev(ptr noundef nonnull align 8 dereferenceable(8) %6) #23
  br label %55

_ZN7QStringD2Ev.exit33:                           ; preds = %_ZN9QtPrivate8RefCount5derefEv.exit.thread2.i28, %_ZN9QtPrivate8RefCount5derefEv.exit.i29, %_ZN7QStringD2Ev.exit27, %14, %2
  ret void

55:                                               ; preds = %51, %53, %47, %49
  %.sink = phi ptr [ %3, %49 ], [ %3, %47 ], [ %5, %53 ], [ %5, %51 ]
  %.pn12.pn = phi { ptr, i32 } [ %50, %49 ], [ %48, %47 ], [ %54, %53 ], [ %52, %51 ]
  call void @_ZN7QStringD2Ev(ptr noundef nonnull align 8 dereferenceable(8) %.sink) #23
  resume { ptr, i32 } %.pn12.pn
}